target datalayout = "e-m:e-p270:32:32-p271:32:32-p272:64:64-i64:64-i128:128-f80:128-n8:16:32:64-S128"
target triple = "x86_64-pc-linux-gnu"

%struct.pmix_hash_type_methods_t = type { ptr, ptr }
%struct.pmix_hash_table_t = type { %struct.pmix_object_t, ptr, ptr, i64, i64, i64, i32, i32, i32, i32, ptr }
%struct.pmix_object_t = type { %union.pthread_mutex_t, ptr, i32, %struct.pmix_tma }
%union.pthread_mutex_t = type { %struct.__pthread_mutex_s }
%struct.__pthread_mutex_s = type { i32, i32, i32, i32, i32, i16, i16, %struct.__pthread_internal_list }
%struct.__pthread_internal_list = type { ptr, ptr }
%struct.pmix_tma = type { ptr, ptr, ptr, ptr, ptr, ptr, ptr, ptr }
%struct.pmix_hash_element_t = type { i32, %union.anon, ptr, ptr }
%union.anon = type { %struct.anon }
%struct.anon = type { ptr, i64 }

@pmix_hash_type_methods_uint32 = internal constant %struct.pmix_hash_type_methods_t { ptr null, ptr @pmix_hash_hash_elt_uint32 }, align 8

; Function Attrs: nounwind uwtable
define i32 @pmix_hash_table_get_value_uint32(ptr noundef %0, i32 noundef %1, ptr noundef %2) #0 {
  %4 = alloca i32, align 4
  %5 = alloca ptr, align 8
  %6 = alloca i32, align 4
  %7 = alloca ptr, align 8
  %8 = alloca i64, align 8
  %9 = alloca i64, align 8
  %10 = alloca ptr, align 8
  %11 = alloca i32, align 4
  store ptr %0, ptr %5, align 8, !tbaa !3
  store i32 %1, ptr %6, align 4, !tbaa !29
  store ptr %2, ptr %7, align 8, !tbaa !42
  call void @llvm.lifetime.start.p0(i64 8, ptr %8) #9
  call void @llvm.lifetime.start.p0(i64 8, ptr %9) #9
  %12 = load ptr, ptr %5, align 8, !tbaa !3
  %13 = getelementptr inbounds nuw %struct.pmix_hash_table_t, ptr %12, i32 0, i32 3
  %14 = load i64, ptr %13, align 8, !tbaa !20
  store i64 %14, ptr %9, align 8, !tbaa !28
  call void @llvm.lifetime.start.p0(i64 8, ptr %10) #9
  %15 = load ptr, ptr %5, align 8, !tbaa !3
  %16 = getelementptr inbounds nuw %struct.pmix_hash_table_t, ptr %15, i32 0, i32 10
  store ptr @pmix_hash_type_methods_uint32, ptr %16, align 8, !tbaa !25
  %17 = load i32, ptr %6, align 4, !tbaa !29
  %18 = zext i32 %17 to i64
  %19 = load i64, ptr %9, align 8, !tbaa !28
  %20 = urem i64 %18, %19
  store i64 %20, ptr %8, align 8, !tbaa !28
  br label %21

21:                                               ; preds = %51, %3
  %22 = load i64, ptr %8, align 8, !tbaa !28
  %23 = load i64, ptr %9, align 8, !tbaa !28
  %24 = icmp eq i64 %22, %23
  br i1 %24, label %25, label %26

25:                                               ; preds = %21
  store i64 0, ptr %8, align 8, !tbaa !28
  br label %26

26:                                               ; preds = %25, %21
  %27 = load ptr, ptr %5, align 8, !tbaa !3
  %28 = getelementptr inbounds nuw %struct.pmix_hash_table_t, ptr %27, i32 0, i32 2
  %29 = load ptr, ptr %28, align 8, !tbaa !8
  %30 = load i64, ptr %8, align 8, !tbaa !28
  %31 = getelementptr inbounds nuw %struct.pmix_hash_element_t, ptr %29, i64 %30
  store ptr %31, ptr %10, align 8, !tbaa !34
  %32 = load ptr, ptr %10, align 8, !tbaa !34
  %33 = getelementptr inbounds nuw %struct.pmix_hash_element_t, ptr %32, i32 0, i32 0
  %34 = load i32, ptr %33, align 8, !tbaa !35
  %35 = icmp ne i32 %34, 0
  br i1 %35, label %37, label %36

36:                                               ; preds = %26
  store i32 -46, ptr %4, align 4
  store i32 1, ptr %11, align 4
  br label %54

37:                                               ; preds = %26
  %38 = load ptr, ptr %10, align 8, !tbaa !34
  %39 = getelementptr inbounds nuw %struct.pmix_hash_element_t, ptr %38, i32 0, i32 1
  %40 = load i32, ptr %39, align 8, !tbaa !43
  %41 = load i32, ptr %6, align 4, !tbaa !29
  %42 = icmp eq i32 %40, %41
  br i1 %42, label %43, label %48

43:                                               ; preds = %37
  %44 = load ptr, ptr %10, align 8, !tbaa !34
  %45 = getelementptr inbounds nuw %struct.pmix_hash_element_t, ptr %44, i32 0, i32 3
  %46 = load ptr, ptr %45, align 8, !tbaa !39
  %47 = load ptr, ptr %7, align 8, !tbaa !42
  store ptr %46, ptr %47, align 8, !tbaa !42
  store i32 0, ptr %4, align 4
  store i32 1, ptr %11, align 4
  br label %54

48:                                               ; preds = %37
  br label %49

49:                                               ; preds = %48
  br label %50

50:                                               ; preds = %49
  br label %51

51:                                               ; preds = %50
  %52 = load i64, ptr %8, align 8, !tbaa !28
  %53 = add i64 %52, 1
  store i64 %53, ptr %8, align 8, !tbaa !28
  br label %21

54:                                               ; preds = %43, %36
  call void @llvm.lifetime.end.p0(i64 8, ptr %10) #9
  call void @llvm.lifetime.end.p0(i64 8, ptr %9) #9
  call void @llvm.lifetime.end.p0(i64 8, ptr %8) #9
  %55 = load i32, ptr %4, align 4
  ret i32 %55
}