; Function Attrs: nofree norecurse nosync nounwind memory(read, argmem: readwrite, inaccessiblemem: none) uwtable
define range(i32 -46, 1) i32 @pmix_hash_table_get_value_uint32(ptr noundef captures(none) initializes((176, 184)) %0, i32 noundef %1, ptr noundef writeonly captures(none) %2) local_unnamed_addr #2 {
  %4 = getelementptr inbounds nuw i8, ptr %0, i64 136
  %5 = load i64, ptr %4, align 8, !tbaa !11
  %6 = getelementptr inbounds nuw i8, ptr %0, i64 176
  store ptr @pmix_hash_type_methods_uint32, ptr %6, align 8, !tbaa !21
  %7 = zext i32 %1 to i64
  %8 = urem i64 %7, %5
  %9 = getelementptr inbounds nuw i8, ptr %0, i64 128
  %10 = load ptr, ptr %9, align 8, !tbaa !17
  %11 = getelementptr inbounds nuw %struct.pmix_hash_element_t, ptr %10, i64 %8
  %12 = load i32, ptr %11, align 8, !tbaa !18
  %.not16 = icmp eq i32 %12, 0
  br i1 %.not16, label %.loopexit, label %.lr.ph

13:                                               ; preds = %.lr.ph
  %14 = add i64 %spec.store.select17, 1
  %15 = icmp eq i64 %14, %5
  %spec.store.select = select i1 %15, i64 0, i64 %14
  %16 = getelementptr inbounds nuw %struct.pmix_hash_element_t, ptr %10, i64 %spec.store.select
  %17 = load i32, ptr %16, align 8, !tbaa !18
  %.not = icmp eq i32 %17, 0
  br i1 %.not, label %.loopexit, label %.lr.ph

.lr.ph:                                           ; preds = %3, %13
  %18 = phi ptr [ %16, %13 ], [ %11, %3 ]
  %spec.store.select17 = phi i64 [ %spec.store.select, %13 ], [ %8, %3 ]
  %19 = getelementptr inbounds nuw i8, ptr %18, i64 8
  %20 = load i32, ptr %19, align 8, !tbaa !36
  %21 = icmp eq i32 %20, %1
  br i1 %21, label %22, label %13

22:                                               ; preds = %.lr.ph
  %23 = getelementptr inbounds nuw i8, ptr %18, i64 32
  %24 = load ptr, ptr %23, align 8, !tbaa !24
  store ptr %24, ptr %2, align 8, !tbaa !37
  br label %.loopexit

.loopexit:                                        ; preds = %13, %3, %22
  %.0 = phi i32 [ 0, %22 ], [ -46, %3 ], [ -46, %13 ]
  ret i32 %.0
}